target datalayout = "e-m:e-p270:32:32-p271:32:32-p272:64:64-i64:64-i128:128-f80:128-n8:16:32:64-S128"
target triple = "x86_64-pc-linux-gnu"

%"class.sat::asymm_branch" = type { ptr, %class.params_ref, i64, %class.random_gen, i32, i32, i8, i32, i32, i8, i8, i64, i32, i32, i32, %class.svector, %class.svector, %class.svector.0, %class.svector.0, %class.svector, %class.svector }
%class.params_ref = type { ptr }
%class.random_gen = type { i32 }
%class.svector.0 = type { %class.vector.1 }
%class.vector.1 = type { ptr }
%class.svector = type { %class.vector }
%class.vector = type { ptr }

; Function Attrs: mustprogress nounwind uwtable
define linkonce_odr hidden void @_ZN6vectorISt4pairIN3sat7literalEjELb0EjEC2Ev(ptr noundef nonnull align 8 dereferenceable(8) %0) unnamed_addr #5 comdat align 2 {
  %2 = alloca ptr, align 8
  store ptr %0, ptr %2, align 8, !tbaa !47
  %3 = load ptr, ptr %2, align 8
  %4 = getelementptr inbounds nuw %class.vector.1, ptr %3, i32 0, i32 0
  store ptr null, ptr %4, align 8, !tbaa !274
  ret void
}

; Function Attrs: mustprogress nounwind uwtable
define linkonce_odr hidden void @_ZN6vectorIN3sat7literalELb0EjEC2Ev(ptr noundef nonnull align 8 dereferenceable(8) %0) unnamed_addr #5 comdat align 2 {
  %2 = alloca ptr, align 8
  store ptr %0, ptr %2, align 8, !tbaa !45
  %3 = load ptr, ptr %2, align 8
  %4 = getelementptr inbounds nuw %class.vector, ptr %3, i32 0, i32 0
  store ptr null, ptr %4, align 8, !tbaa !255
  ret void
}

; Function Attrs: mustprogress nounwind uwtable
define hidden void @_ZN3sat12asymm_branch16reset_statisticsEv(ptr noundef nonnull align 8 dereferenceable(128) %0) #5 align 2 {
  %2 = alloca ptr, align 8
  store ptr %0, ptr %2, align 8, !tbaa !3
  %3 = load ptr, ptr %2, align 8
  %4 = getelementptr inbounds nuw %"class.sat::asymm_branch", ptr %3, i32 0, i32 12
  store i32 0, ptr %4, align 8, !tbaa !42
  %5 = getelementptr inbounds nuw %"class.sat::asymm_branch", ptr %3, i32 0, i32 13
  store i32 0, ptr %5, align 4, !tbaa !43
  %6 = getelementptr inbounds nuw %"class.sat::asymm_branch", ptr %3, i32 0, i32 14
  store i32 0, ptr %6, align 8, !tbaa !44
  ret void
}

; Function Attrs: mustprogress nounwind uwtable
define linkonce_odr hidden void @_ZN7svectorISt4pairIN3sat7literalEjEjEC2Ev(ptr noundef nonnull align 8 dereferenceable(8) %0) unnamed_addr #5 comdat align 2 {
  %2 = alloca ptr, align 8
  store ptr %0, ptr %2, align 8, !tbaa !34
  %3 = load ptr, ptr %2, align 8
  call void @_ZN6vectorISt4pairIN3sat7literalEjELb0EjEC2Ev(ptr noundef nonnull align 8 dereferenceable(8) %3) #3
  ret void
}

; Function Attrs: mustprogress nounwind uwtable
define linkonce_odr hidden void @_ZN7svectorIN3sat7literalEjEC2Ev(ptr noundef nonnull align 8 dereferenceable(8) %0) unnamed_addr #5 comdat align 2 {
  %2 = alloca ptr, align 8
  store ptr %0, ptr %2, align 8, !tbaa !32
  %3 = load ptr, ptr %2, align 8
  call void @_ZN6vectorIN3sat7literalELb0EjEC2Ev(ptr noundef nonnull align 8 dereferenceable(8) %3) #3
  ret void
}

; Function Attrs: mustprogress nounwind uwtable
define linkonce_odr hidden void @_ZN10random_genC2Ej(ptr noundef nonnull align 4 dereferenceable(4) %0, i32 noundef %1) unnamed_addr #5 comdat align 2 {
  %3 = alloca ptr, align 8
  %4 = alloca i32, align 4
  store ptr %0, ptr %3, align 8, !tbaa !28
  store i32 %1, ptr %4, align 4, !tbaa !30
  %5 = load ptr, ptr %3, align 8
  %6 = getelementptr inbounds nuw %class.random_gen, ptr %5, i32 0, i32 0
  %7 = load i32, ptr %4, align 4, !tbaa !30
  store i32 %7, ptr %6, align 4, !tbaa !31
  ret void
}

; Function Attrs: mustprogress uwtable
define hidden void @_ZN3sat12asymm_branchC2ERNS_6solverERK10params_ref(ptr noundef nonnull align 8 dereferenceable(128) %0, ptr noundef nonnull align 8 dereferenceable(4264) %1, ptr noundef nonnull align 8 dereferenceable(8) %2) unnamed_addr #4 align 2 personality ptr @__gxx_personality_v0 {
  %4 = alloca ptr, align 8
  %5 = alloca ptr, align 8
  %6 = alloca ptr, align 8
  %7 = alloca ptr, align 8
  %8 = alloca i32, align 4
  store ptr %0, ptr %4, align 8, !tbaa !3
  store ptr %1, ptr %5, align 8, !tbaa !8
  store ptr %2, ptr %6, align 8, !tbaa !10
  %9 = load ptr, ptr %4, align 8
  %10 = getelementptr inbounds nuw %"class.sat::asymm_branch", ptr %9, i32 0, i32 0
  %11 = load ptr, ptr %5, align 8, !tbaa !8
  store ptr %11, ptr %10, align 8, !tbaa !8
  %12 = getelementptr inbounds nuw %"class.sat::asymm_branch", ptr %9, i32 0, i32 1
  %13 = load ptr, ptr %6, align 8, !tbaa !10
  call void @_ZN10params_refC1ERKS_(ptr noundef nonnull align 8 dereferenceable(8) %12, ptr noundef nonnull align 8 dereferenceable(8) %13)
  %14 = getelementptr inbounds nuw %"class.sat::asymm_branch", ptr %9, i32 0, i32 2
  store i64 0, ptr %14, align 8, !tbaa !12
  %15 = getelementptr inbounds nuw %"class.sat::asymm_branch", ptr %9, i32 0, i32 3
  invoke void @_ZN10random_genC2Ej(ptr noundef nonnull align 4 dereferenceable(4) %15, i32 noundef 0)
          to label %16 unwind label %28

16:                                               ; preds = %3
  %17 = getelementptr inbounds nuw %"class.sat::asymm_branch", ptr %9, i32 0, i32 15
  call void @_ZN7svectorIN3sat7literalEjEC2Ev(ptr noundef nonnull align 8 dereferenceable(8) %17) #3
  %18 = getelementptr inbounds nuw %"class.sat::asymm_branch", ptr %9, i32 0, i32 16
  call void @_ZN7svectorIN3sat7literalEjEC2Ev(ptr noundef nonnull align 8 dereferenceable(8) %18) #3
  %19 = getelementptr inbounds nuw %"class.sat::asymm_branch", ptr %9, i32 0, i32 17
  call void @_ZN7svectorISt4pairIN3sat7literalEjEjEC2Ev(ptr noundef nonnull align 8 dereferenceable(8) %19) #3
  %20 = getelementptr inbounds nuw %"class.sat::asymm_branch", ptr %9, i32 0, i32 18
  call void @_ZN7svectorISt4pairIN3sat7literalEjEjEC2Ev(ptr noundef nonnull align 8 dereferenceable(8) %20) #3
  %21 = getelementptr inbounds nuw %"class.sat::asymm_branch", ptr %9, i32 0, i32 19
  call void @_ZN7svectorIN3sat7literalEjEC2Ev(ptr noundef nonnull align 8 dereferenceable(8) %21) #3
  %22 = getelementptr inbounds nuw %"class.sat::asymm_branch", ptr %9, i32 0, i32 20
  call void @_ZN7svectorIN3sat7literalEjEC2Ev(ptr noundef nonnull align 8 dereferenceable(8) %22) #3
  %23 = load ptr, ptr %6, align 8, !tbaa !10
  invoke void @_ZN3sat12asymm_branch11updt_paramsERK10params_ref(ptr noundef nonnull align 8 dereferenceable(128) %9, ptr noundef nonnull align 8 dereferenceable(8) %23)
          to label %24 unwind label %32

24:                                               ; preds = %16
  invoke void @_ZN3sat12asymm_branch16reset_statisticsEv(ptr noundef nonnull align 8 dereferenceable(128) %9)
          to label %25 unwind label %32

25:                                               ; preds = %24
  %26 = getelementptr inbounds nuw %"class.sat::asymm_branch", ptr %9, i32 0, i32 4
  store i32 0, ptr %26, align 4, !tbaa !26
  %27 = getelementptr inbounds nuw %"class.sat::asymm_branch", ptr %9, i32 0, i32 5
  store i32 0, ptr %27, align 8, !tbaa !27
  ret void

28:                                               ; preds = %3
  %29 = landingpad { ptr, i32 }
          cleanup
  %30 = extractvalue { ptr, i32 } %29, 0
  store ptr %30, ptr %7, align 8
  %31 = extractvalue { ptr, i32 } %29, 1
  store i32 %31, ptr %8, align 4
  br label %36

32:                                               ; preds = %24, %16
  %33 = landingpad { ptr, i32 }
          cleanup
  %34 = extractvalue { ptr, i32 } %33, 0
  store ptr %34, ptr %7, align 8
  %35 = extractvalue { ptr, i32 } %33, 1
  store i32 %35, ptr %8, align 4
  call void @_ZN6vectorIN3sat7literalELb0EjED2Ev(ptr noundef nonnull align 8 dereferenceable(8) %22) #3
  call void @_ZN6vectorIN3sat7literalELb0EjED2Ev(ptr noundef nonnull align 8 dereferenceable(8) %21) #3
  call void @_ZN6vectorISt4pairIN3sat7literalEjELb0EjED2Ev(ptr noundef nonnull align 8 dereferenceable(8) %20) #3
  call void @_ZN6vectorISt4pairIN3sat7literalEjELb0EjED2Ev(ptr noundef nonnull align 8 dereferenceable(8) %19) #3
  call void @_ZN6vectorIN3sat7literalELb0EjED2Ev(ptr noundef nonnull align 8 dereferenceable(8) %18) #3
  call void @_ZN6vectorIN3sat7literalELb0EjED2Ev(ptr noundef nonnull align 8 dereferenceable(8) %17) #3
  br label %36

36:                                               ; preds = %32, %28
  call void @_ZN10params_refD1Ev(ptr noundef nonnull align 8 dereferenceable(8) %12) #3
  br label %37

37:                                               ; preds = %36
  %38 = load ptr, ptr %7, align 8
  %39 = load i32, ptr %8, align 4
  %40 = insertvalue { ptr, i32 } poison, ptr %38, 0
  %41 = insertvalue { ptr, i32 } %40, i32 %39, 1
  resume { ptr, i32 } %41
}