; Function Attrs: mustprogress uwtable
define hidden void @_ZN3sat12asymm_branchC2ERNS_6solverERK10params_ref(ptr noundef nonnull align 8 dereferenceable(128) initializes((0, 8)) %0, ptr noundef nonnull align 8 dereferenceable(4264) %1, ptr noundef nonnull align 8 dereferenceable(8) %2) unnamed_addr #3 align 2 personality ptr @__gxx_personality_v0 {
  store ptr %1, ptr %0, align 8, !tbaa !3
  %4 = getelementptr inbounds nuw i8, ptr %0, i64 8
  tail call void @_ZN10params_refC1ERKS_(ptr noundef nonnull align 8 dereferenceable(8) %4, ptr noundef nonnull align 8 dereferenceable(8) %2)
  %5 = getelementptr inbounds nuw i8, ptr %0, i64 16
  store i64 0, ptr %5, align 8, !tbaa !8
  %6 = getelementptr inbounds nuw i8, ptr %0, i64 24
  store i32 0, ptr %6, align 8, !tbaa !22
  %7 = getelementptr inbounds nuw i8, ptr %0, i64 80
  tail call void @llvm.memset.p0.i64(ptr noundef nonnull align 8 dereferenceable(48) %7, i8 0, i64 48, i1 false)
  invoke void @_ZN3sat12asymm_branch11updt_paramsERK10params_ref(ptr noundef nonnull align 8 dereferenceable(128) %0, ptr noundef nonnull align 8 dereferenceable(8) %2)
          to label %8 unwind label %14

8:                                                ; preds = %3
  %9 = getelementptr inbounds nuw i8, ptr %0, i64 64
  store i32 0, ptr %9, align 8, !tbaa !23
  %10 = getelementptr inbounds nuw i8, ptr %0, i64 68
  store i32 0, ptr %10, align 4, !tbaa !24
  %11 = getelementptr inbounds nuw i8, ptr %0, i64 72
  store i32 0, ptr %11, align 8, !tbaa !25
  %12 = getelementptr inbounds nuw i8, ptr %0, i64 28
  store i32 0, ptr %12, align 4, !tbaa !26
  %13 = getelementptr inbounds nuw i8, ptr %0, i64 32
  store i32 0, ptr %13, align 8, !tbaa !27
  ret void

14:                                               ; preds = %3
  %15 = landingpad { ptr, i32 }
          cleanup
  %16 = getelementptr inbounds nuw i8, ptr %0, i64 120
  %17 = getelementptr inbounds nuw i8, ptr %0, i64 112
  %18 = getelementptr inbounds nuw i8, ptr %0, i64 104
  %19 = getelementptr inbounds nuw i8, ptr %0, i64 96
  %20 = getelementptr inbounds nuw i8, ptr %0, i64 88
  tail call void @_ZN6vectorIN3sat7literalELb0EjED2Ev(ptr noundef nonnull align 8 dereferenceable(8) %16) #25
  tail call void @_ZN6vectorIN3sat7literalELb0EjED2Ev(ptr noundef nonnull align 8 dereferenceable(8) %17) #25
  tail call void @_ZN6vectorISt4pairIN3sat7literalEjELb0EjED2Ev(ptr noundef nonnull align 8 dereferenceable(8) %18) #25
  tail call void @_ZN6vectorISt4pairIN3sat7literalEjELb0EjED2Ev(ptr noundef nonnull align 8 dereferenceable(8) %19) #25
  tail call void @_ZN6vectorIN3sat7literalELb0EjED2Ev(ptr noundef nonnull align 8 dereferenceable(8) %20) #25
  tail call void @_ZN6vectorIN3sat7literalELb0EjED2Ev(ptr noundef nonnull align 8 dereferenceable(8) %7) #25
  tail call void @_ZN10params_refD1Ev(ptr noundef nonnull align 8 dereferenceable(8) %4) #25
  resume { ptr, i32 } %15
}